target datalayout = "e-m:e-p270:32:32-p271:32:32-p272:64:64-i64:64-i128:128-f80:128-n8:16:32:64-S128"
target triple = "x86_64-pc-linux-gnu"

%struct._address_type_t = type { i32, ptr, ptr, ptr, ptr, ptr, ptr, ptr, ptr, ptr }
%struct._address = type { i32, i32, ptr, ptr }

@type_list = internal global [45 x ptr] zeroinitializer, align 16

; Function Attrs: null_pointer_is_valid sspstrong uwtable
define void @address_to_str_buf(ptr noundef %0, ptr noundef %1, i32 noundef %2) #3 {
  %4 = alloca ptr, align 8
  %5 = alloca ptr, align 8
  %6 = alloca i32, align 4
  %7 = alloca ptr, align 8
  %8 = alloca i32, align 4
  store ptr %0, ptr %4, align 8
  store ptr %1, ptr %5, align 8
  store i32 %2, ptr %6, align 4
  call void @llvm.lifetime.start.p0(i64 8, ptr %7) #12
  %9 = load ptr, ptr %5, align 8
  %10 = icmp ne ptr %9, null
  br i1 %10, label %11, label %14

11:                                               ; preds = %3
  %12 = load i32, ptr %6, align 4
  %13 = icmp ne i32 %12, 0
  br i1 %13, label %15, label %14

14:                                               ; preds = %11, %3
  store i32 1, ptr %8, align 4
  br label %43

15:                                               ; preds = %11
  br label %16

16:                                               ; preds = %15
  br label %17

17:                                               ; preds = %16
  br label %18

18:                                               ; preds = %17
  %19 = load ptr, ptr %4, align 8
  %20 = getelementptr inbounds nuw %struct._address, ptr %19, i32 0, i32 0
  %21 = load i32, ptr %20, align 8
  %22 = sext i32 %21 to i64
  %23 = getelementptr [45 x ptr], ptr @type_list, i64 0, i64 %22
  %24 = load ptr, ptr %23, align 8
  store ptr %24, ptr %7, align 8
  %25 = load ptr, ptr %7, align 8
  %26 = icmp eq ptr %25, null
  br i1 %26, label %32, label %27

27:                                               ; preds = %18
  %28 = load ptr, ptr %7, align 8
  %29 = getelementptr inbounds nuw %struct._address_type_t, ptr %28, i32 0, i32 3
  %30 = load ptr, ptr %29, align 8
  %31 = icmp eq ptr %30, null
  br i1 %31, label %32, label %35

32:                                               ; preds = %27, %18
  %33 = load ptr, ptr %5, align 8
  %34 = getelementptr i8, ptr %33, i64 0
  store i8 0, ptr %34, align 1
  store i32 1, ptr %8, align 4
  br label %43

35:                                               ; preds = %27
  %36 = load ptr, ptr %7, align 8
  %37 = getelementptr inbounds nuw %struct._address_type_t, ptr %36, i32 0, i32 3
  %38 = load ptr, ptr %37, align 8
  %39 = load ptr, ptr %4, align 8
  %40 = load ptr, ptr %5, align 8
  %41 = load i32, ptr %6, align 4
  %42 = call i32 %38(ptr noundef %39, ptr noundef %40, i32 noundef %41)
  store i32 0, ptr %8, align 4
  br label %43

43:                                               ; preds = %35, %32, %14
  call void @llvm.lifetime.end.p0(i64 8, ptr %7) #12
  %44 = load i32, ptr %8, align 4
  switch i32 %44, label %46 [
    i32 0, label %45
    i32 1, label %45
  ]

45:                                               ; preds = %43, %43
  ret void

46:                                               ; preds = %43
  unreachable
}

; Function Attrs: null_pointer_is_valid sspstrong uwtable
define internal i32 @address_type_get_length(ptr noundef %0) #3 {
  %2 = alloca i32, align 4
  %3 = alloca ptr, align 8
  %4 = alloca ptr, align 8
  %5 = alloca i32, align 4
  store ptr %0, ptr %3, align 8
  call void @llvm.lifetime.start.p0(i64 8, ptr %4) #12
  br label %6

6:                                                ; preds = %1
  br label %7

7:                                                ; preds = %6
  br label %8

8:                                                ; preds = %7
  %9 = load ptr, ptr %3, align 8
  %10 = getelementptr inbounds nuw %struct._address, ptr %9, i32 0, i32 0
  %11 = load i32, ptr %10, align 8
  %12 = sext i32 %11 to i64
  %13 = getelementptr [45 x ptr], ptr @type_list, i64 0, i64 %12
  %14 = load ptr, ptr %13, align 8
  store ptr %14, ptr %4, align 8
  %15 = load ptr, ptr %4, align 8
  %16 = icmp eq ptr %15, null
  br i1 %16, label %17, label %18

17:                                               ; preds = %8
  store i32 0, ptr %2, align 4
  store i32 1, ptr %5, align 4
  br label %24

18:                                               ; preds = %8
  %19 = load ptr, ptr %4, align 8
  %20 = getelementptr inbounds nuw %struct._address_type_t, ptr %19, i32 0, i32 4
  %21 = load ptr, ptr %20, align 8
  %22 = load ptr, ptr %3, align 8
  %23 = call i32 %21(ptr noundef %22)
  store i32 %23, ptr %2, align 4
  store i32 1, ptr %5, align 4
  br label %24

24:                                               ; preds = %18, %17
  call void @llvm.lifetime.end.p0(i64 8, ptr %4) #12
  %25 = load i32, ptr %2, align 4
  ret i32 %25
}

; Function Attrs: null_pointer_is_valid sspstrong uwtable
define ptr @address_to_str(ptr noundef %0, ptr noundef %1) #3 {
  %3 = alloca ptr, align 8
  %4 = alloca ptr, align 8
  %5 = alloca ptr, align 8
  %6 = alloca i32, align 4
  store ptr %0, ptr %3, align 8
  store ptr %1, ptr %4, align 8
  call void @llvm.lifetime.start.p0(i64 8, ptr %5) #12
  call void @llvm.lifetime.start.p0(i64 4, ptr %6) #12
  %7 = load ptr, ptr %4, align 8
  %8 = call i32 @address_type_get_length(ptr noundef %7)
  store i32 %8, ptr %6, align 4
  %9 = load i32, ptr %6, align 4
  %10 = icmp sle i32 %9, 0
  br i1 %10, label %11, label %12

11:                                               ; preds = %2
  store i32 256, ptr %6, align 4
  br label %12

12:                                               ; preds = %11, %2
  %13 = load ptr, ptr %3, align 8
  %14 = load i32, ptr %6, align 4
  %15 = sext i32 %14 to i64
  %16 = call noalias ptr @wmem_alloc(ptr noundef %13, i64 noundef %15) #14
  store ptr %16, ptr %5, align 8
  %17 = load ptr, ptr %4, align 8
  %18 = load ptr, ptr %5, align 8
  %19 = load i32, ptr %6, align 4
  call void @address_to_str_buf(ptr noundef %17, ptr noundef %18, i32 noundef %19)
  %20 = load ptr, ptr %5, align 8
  call void @llvm.lifetime.end.p0(i64 4, ptr %6) #12
  call void @llvm.lifetime.end.p0(i64 8, ptr %5) #12
  ret ptr %20
}