; Function Attrs: null_pointer_is_valid sspstrong uwtable
define ptr @address_to_str(ptr noundef %0, ptr noundef %1) local_unnamed_addr #6 {
  %3 = load i32, ptr %1, align 8
  %4 = sext i32 %3 to i64
  %5 = getelementptr [45 x ptr], ptr @type_list, i64 0, i64 %4
  %6 = load ptr, ptr %5, align 8
  %7 = icmp eq ptr %6, null
  br i1 %7, label %address_type_get_length.exit.thread, label %address_type_get_length.exit

address_type_get_length.exit:                     ; preds = %2
  %8 = getelementptr inbounds nuw i8, ptr %6, i64 32
  %9 = load ptr, ptr %8, align 8
  %10 = tail call i32 %9(ptr noundef %1)
  %.fr = freeze i32 %10
  %11 = icmp slt i32 %.fr, 1
  br i1 %11, label %address_type_get_length.exit.thread, label %12

address_type_get_length.exit.thread:              ; preds = %2, %address_type_get_length.exit
  br label %12

12:                                               ; preds = %address_type_get_length.exit, %address_type_get_length.exit.thread
  %13 = phi i32 [ 256, %address_type_get_length.exit.thread ], [ %.fr, %address_type_get_length.exit ]
  %14 = zext nneg i32 %13 to i64
  %15 = tail call noalias ptr @wmem_alloc(ptr noundef %0, i64 noundef %14) #19
  %.not = icmp eq ptr %15, null
  br i1 %.not, label %address_to_str_buf.exit, label %16

16:                                               ; preds = %12
  %17 = load i32, ptr %1, align 8
  %18 = sext i32 %17 to i64
  %19 = getelementptr [45 x ptr], ptr @type_list, i64 0, i64 %18
  %20 = load ptr, ptr %19, align 8
  %21 = icmp eq ptr %20, null
  br i1 %21, label %26, label %22

22:                                               ; preds = %16
  %23 = getelementptr inbounds nuw i8, ptr %20, i64 24
  %24 = load ptr, ptr %23, align 8
  %25 = icmp eq ptr %24, null
  br i1 %25, label %26, label %27

26:                                               ; preds = %22, %16
  store i8 0, ptr %15, align 1
  br label %address_to_str_buf.exit

27:                                               ; preds = %22
  %28 = tail call i32 %24(ptr noundef %1, ptr noundef nonnull %15, i32 noundef %13)
  br label %address_to_str_buf.exit

address_to_str_buf.exit:                          ; preds = %12, %26, %27
  ret ptr %15
}